; Function Attrs: nofree norecurse nosync nounwind memory(read, inaccessiblemem: none) uwtable
define dso_local ptr @get_plan_rowmark(ptr noundef readonly captures(address_is_null) %0, i32 noundef %1) local_unnamed_addr #4 {
  %3 = getelementptr inbounds nuw i8, ptr %0, i64 16
  %.not = icmp eq ptr %0, null
  br i1 %.not, label %._crit_edge25, label %.lr.ph

.lr.ph:                                           ; preds = %2
  %4 = getelementptr inbounds nuw i8, ptr %0, i64 4
  %5 = load i32, ptr %4, align 4
  %6 = icmp sgt i32 %5, 0
  br i1 %6, label %.lr.ph32, label %._crit_edge25

.lr.ph32:                                         ; preds = %.lr.ph
  %7 = load ptr, ptr %3, align 8
  %wide.trip.count = zext nneg i32 %5 to i64
  br label %9

8:                                                ; preds = %9
  %indvars.iv.next = add nuw nsw i64 %indvars.iv, 1
  %exitcond.not = icmp eq i64 %indvars.iv.next, %wide.trip.count
  br i1 %exitcond.not, label %._crit_edge25, label %9

9:                                                ; preds = %.lr.ph32, %8
  %indvars.iv = phi i64 [ 0, %.lr.ph32 ], [ %indvars.iv.next, %8 ]
  %10 = getelementptr inbounds nuw %union.ListCell, ptr %7, i64 %indvars.iv
  %11 = load ptr, ptr %10, align 8
  %12 = getelementptr inbounds nuw i8, ptr %11, i64 4
  %13 = load i32, ptr %12, align 4
  %.not17 = icmp eq i32 %13, %1
  br i1 %.not17, label %._crit_edge25, label %8

._crit_edge25:                                    ; preds = %9, %8, %.lr.ph, %2
  %14 = phi ptr [ null, %2 ], [ null, %.lr.ph ], [ null, %8 ], [ %11, %9 ]
  ret ptr %14
}